; Function Attrs: mustprogress nounwind uwtable
define hidden noundef ptr @_ZN15RotateLeftVNode5IdealEP8PhaseGVNb(ptr nocapture noundef nonnull readonly align 8 dereferenceable(64) %0, ptr noundef %1, i1 noundef zeroext %2) unnamed_addr #1 align 2 {
  %4 = getelementptr inbounds i8, ptr %0, i64 56
  %5 = load ptr, ptr %4, align 8
  %6 = getelementptr inbounds i8, ptr %5, i64 32
  %7 = load i32, ptr %6, align 8
  %8 = getelementptr inbounds i8, ptr %5, i64 24
  %9 = load ptr, ptr %8, align 8
  %10 = tail call noundef zeroext i8 @_ZNK4Type24array_element_basic_typeEv(ptr noundef nonnull align 8 dereferenceable(20) %9) #8
  %11 = tail call noundef zeroext i1 @_ZN7Matcher27match_rule_supported_vectorEii9BasicType(i32 noundef 297, i32 noundef %7, i8 noundef zeroext %10) #8
  br i1 %11, label %20, label %12

12:                                               ; preds = %3
  %13 = getelementptr inbounds i8, ptr %0, i64 8
  %14 = load ptr, ptr %13, align 8
  %15 = getelementptr inbounds i8, ptr %14, i64 8
  %16 = load ptr, ptr %15, align 8
  %17 = getelementptr inbounds i8, ptr %14, i64 16
  %18 = load ptr, ptr %17, align 8
  %19 = tail call noundef ptr @_ZN10VectorNode24degenerate_vector_rotateEP4NodeS1_bi9BasicTypeP8PhaseGVN(ptr noundef %16, ptr noundef %18, i1 noundef zeroext true, i32 noundef %7, i8 noundef zeroext %10, ptr noundef %1)
  br label %20

20:                                               ; preds = %3, %12
  %.0 = phi ptr [ %19, %12 ], [ null, %3 ]
  ret ptr %.0
}